target datalayout = "e-m:e-p270:32:32-p271:32:32-p272:64:64-i64:64-i128:128-f80:128-n8:16:32:64-S128"
target triple = "x86_64-pc-linux-gnu"

%struct.SDL_Surface = type { i32, i32, i32, i32, i32, ptr, i32, ptr, i32, i32, ptr, i32, ptr, i32, ptr, i32, %struct.SDL_Rect, %struct.SDL_BlitMap }
%struct.SDL_Rect = type { i32, i32, i32, i32 }
%struct.SDL_BlitMap = type { i32, ptr, ptr, %struct.SDL_BlitInfo, i32, i32 }
%struct.SDL_BlitInfo = type { ptr, ptr, i32, i32, i32, i32, ptr, ptr, i32, i32, i32, i32, ptr, ptr, ptr, ptr, ptr, ptr, i32, i32, i8, i8, i8, i8 }

@SDL_surface_magic = internal global i8 0, align 1
@.str.6 = private unnamed_addr constant [28 x i8] c"SDL.surface.SDR_white_point\00", align 1

; Function Attrs: nounwind uwtable
define hidden zeroext i1 @SDL_SurfaceValid(ptr noundef %0) #0 {
  %2 = alloca ptr, align 8
  store ptr %0, ptr %2, align 8
  %3 = load ptr, ptr %2, align 8
  %4 = icmp ne ptr %3, null
  br i1 %4, label %5, label %10

5:                                                ; preds = %1
  %6 = load ptr, ptr %2, align 8
  %7 = getelementptr inbounds nuw %struct.SDL_Surface, ptr %6, i32 0, i32 7
  %8 = load ptr, ptr %7, align 8
  %9 = icmp eq ptr %8, @SDL_surface_magic
  br label %10

10:                                               ; preds = %5, %1
  %11 = phi i1 [ false, %1 ], [ %9, %5 ]
  ret i1 %11
}

; Function Attrs: nounwind uwtable
define hidden float @SDL_GetSurfaceSDRWhitePoint(ptr noundef %0, i32 noundef %1) #0 {
  %3 = alloca float, align 4
  %4 = alloca ptr, align 8
  %5 = alloca i32, align 4
  %6 = alloca i32, align 4
  %7 = alloca i32, align 4
  %8 = alloca float, align 4
  %9 = alloca float, align 4
  %10 = alloca i32, align 4
  store ptr %0, ptr %4, align 8
  store i32 %1, ptr %5, align 4
  call void @llvm.lifetime.start.p0(i64 4, ptr %6) #8
  %11 = load i32, ptr %5, align 4
  %12 = lshr i32 %11, 5
  %13 = and i32 %12, 31
  store i32 %13, ptr %6, align 4
  %14 = load i32, ptr %6, align 4
  %15 = icmp eq i32 %14, 8
  br i1 %15, label %19, label %16

16:                                               ; preds = %2
  %17 = load i32, ptr %6, align 4
  %18 = icmp eq i32 %17, 16
  br i1 %18, label %19, label %35

19:                                               ; preds = %16, %2
  call void @llvm.lifetime.start.p0(i64 4, ptr %7) #8
  call void @llvm.lifetime.start.p0(i64 4, ptr %8) #8
  store float 1.000000e+00, ptr %8, align 4
  %20 = load ptr, ptr %4, align 8
  %21 = call zeroext i1 @SDL_SurfaceValid(ptr noundef %20)
  br i1 %21, label %22, label %26

22:                                               ; preds = %19
  %23 = load ptr, ptr %4, align 8
  %24 = getelementptr inbounds nuw %struct.SDL_Surface, ptr %23, i32 0, i32 9
  %25 = load i32, ptr %24, align 4
  store i32 %25, ptr %7, align 4
  br label %27

26:                                               ; preds = %19
  store i32 0, ptr %7, align 4
  br label %27

27:                                               ; preds = %26, %22
  %28 = load i32, ptr %6, align 4
  %29 = icmp eq i32 %28, 16
  br i1 %29, label %30, label %31

30:                                               ; preds = %27
  call void @llvm.lifetime.start.p0(i64 4, ptr %9) #8
  store float 2.030000e+02, ptr %9, align 4
  store float 2.030000e+02, ptr %8, align 4
  call void @llvm.lifetime.end.p0(i64 4, ptr %9) #8
  br label %31

31:                                               ; preds = %30, %27
  %32 = load i32, ptr %7, align 4
  %33 = load float, ptr %8, align 4
  %34 = call float @SDL_GetFloatProperty_REAL(i32 noundef %32, ptr noundef @.str.6, float noundef %33)
  store float %34, ptr %3, align 4
  store i32 1, ptr %10, align 4
  call void @llvm.lifetime.end.p0(i64 4, ptr %8) #8
  call void @llvm.lifetime.end.p0(i64 4, ptr %7) #8
  br label %36

35:                                               ; preds = %16
  store float 1.000000e+00, ptr %3, align 4
  store i32 1, ptr %10, align 4
  br label %36

36:                                               ; preds = %35, %31
  call void @llvm.lifetime.end.p0(i64 4, ptr %6) #8
  %37 = load float, ptr %3, align 4
  ret float %37
}