; Function Attrs: nounwind uwtable
define hidden float @SDL_GetSurfaceSDRWhitePoint(ptr noundef readonly captures(address_is_null) %0, i32 noundef %1) local_unnamed_addr #2 {
  %3 = lshr i32 %1, 5
  %4 = and i32 %3, 31
  %5 = icmp eq i32 %4, 16
  switch i32 %4, label %14 [
    i32 16, label %6
    i32 8, label %6
  ]

6:                                                ; preds = %2, %2
  %.not.i = icmp eq ptr %0, null
  br i1 %.not.i, label %SDL_SurfaceValid.exit.thread, label %SDL_SurfaceValid.exit

SDL_SurfaceValid.exit:                            ; preds = %6
  %7 = getelementptr inbounds nuw i8, ptr %0, i64 40
  %8 = load ptr, ptr %7, align 8
  %9 = icmp eq ptr %8, @SDL_surface_magic
  br i1 %9, label %10, label %SDL_SurfaceValid.exit.thread

10:                                               ; preds = %SDL_SurfaceValid.exit
  %11 = getelementptr inbounds nuw i8, ptr %0, i64 52
  %12 = load i32, ptr %11, align 4
  br label %SDL_SurfaceValid.exit.thread

SDL_SurfaceValid.exit.thread:                     ; preds = %6, %SDL_SurfaceValid.exit, %10
  %.010 = phi i32 [ %12, %10 ], [ 0, %SDL_SurfaceValid.exit ], [ 0, %6 ]
  %.09 = select i1 %5, float 2.030000e+02, float 1.000000e+00
  %13 = tail call float @SDL_GetFloatProperty_REAL(i32 noundef %.010, ptr noundef nonnull @.str.6, float noundef %.09) #10
  br label %14

14:                                               ; preds = %2, %SDL_SurfaceValid.exit.thread
  %.0 = phi float [ %13, %SDL_SurfaceValid.exit.thread ], [ 1.000000e+00, %2 ]
  ret float %.0
}